; Function Attrs: nofree norecurse nosync nounwind memory(argmem: readwrite) uwtable
define internal void @read_ya16be_gray_c(ptr noundef writeonly captures(none) %0, ptr noundef readonly captures(none) %1, ptr readnone captures(none) %2, ptr readnone captures(none) %3, i32 noundef %4, ptr readnone captures(none) %5, ptr readnone captures(none) %6) #1 {
  %8 = icmp sgt i32 %4, 0
  br i1 %8, label %.lr.ph.preheader, label %._crit_edge

.lr.ph.preheader:                                 ; preds = %7
  %wide.trip.count = zext nneg i32 %4 to i64
  br label %.lr.ph

.lr.ph:                                           ; preds = %.lr.ph.preheader, %.lr.ph
  %indvars.iv = phi i64 [ 0, %.lr.ph.preheader ], [ %indvars.iv.next, %.lr.ph ]
  %9 = shl nsw i64 %indvars.iv, 2
  %10 = getelementptr inbounds nuw i8, ptr %1, i64 %9
  %11 = load i16, ptr %10, align 1, !tbaa !34
  %12 = tail call i16 @llvm.bswap.i16(i16 %11)
  %13 = shl nuw nsw i64 %indvars.iv, 1
  %14 = getelementptr inbounds nuw i8, ptr %0, i64 %13
  store i16 %12, ptr %14, align 1, !tbaa !34
  %indvars.iv.next = add nuw nsw i64 %indvars.iv, 1
  %exitcond.not = icmp eq i64 %indvars.iv.next, %wide.trip.count
  br i1 %exitcond.not, label %._crit_edge, label %.lr.ph, !llvm.loop !101

._crit_edge:                                      ; preds = %.lr.ph, %7
  ret void
}